target datalayout = "e-m:e-p270:32:32-p271:32:32-p272:64:64-i64:64-i128:128-f80:128-n8:16:32:64-S128"
target triple = "x86_64-pc-linux-gnu"

%struct.Path_ = type { %union.SourceSpan, ptr, i32 }
%union.SourceSpan = type { i64 }
%struct.TypeInfo_ = type { i16, ptr, %union.SourceSpan, %union.anon }
%union.anon = type { %struct.anon.0 }
%struct.anon.0 = type { ptr, ptr }
%struct.Type_ = type { i32, ptr, ptr, ptr, %union.anon.85, ptr, ptr, %union.anon.87 }
%union.anon.85 = type { ptr }
%union.anon.87 = type { %struct.TypeFunction }
%struct.TypeFunction = type { ptr, ptr, ptr }
%struct.Expr_ = type { ptr, %union.SourceSpan, i16, %union.anon.27 }
%union.anon.27 = type { %struct.ExprAnySwitch }
%struct.ExprAnySwitch = type { i8, %union.anon.29 }
%union.anon.29 = type { %struct.anon.30 }
%struct.anon.30 = type { ptr, %union.SourceSpan, ptr }
%struct.anon.1 = type { ptr, ptr }

@.str = private unnamed_addr constant [36 x i8] c"FATAL ERROR %s -> in %s @ in %s:%d \00", align 1
@.str.1 = private unnamed_addr constant [22 x i8] c"Should be unreachable\00", align 1
@__func__.print_type = private unnamed_addr constant [11 x i8] c"print_type\00", align 1
@.str.2 = private unnamed_addr constant [112 x i8] c"generated/home/dtcxzyw/WorkSpace/Projects/compilers/llvm-opt-benchmark/bench/c3c/c3c/src/compiler/json_output.c\00", align 1
@.str.3 = private unnamed_addr constant [5 x i8] c"%s::\00", align 1
@.str.4 = private unnamed_addr constant [12 x i8] c"$typeof(%s)\00", align 1
@.str.5 = private unnamed_addr constant [13 x i8] c"$vatype(...)\00", align 1
@.str.6 = private unnamed_addr constant [15 x i8] c"$evaltype(...)\00", align 1
@.str.7 = private unnamed_addr constant [15 x i8] c"$typefrom(...)\00", align 1
@.str.8 = private unnamed_addr constant [5 x i8] c"[%s]\00", align 1
@.str.9 = private unnamed_addr constant [7 x i8] c"[<%s>]\00", align 1
@.str.10 = private unnamed_addr constant [4 x i8] c"[*]\00", align 1
@.str.11 = private unnamed_addr constant [5 x i8] c"[<>]\00", align 1
@.str.12 = private unnamed_addr constant [3 x i8] c"[]\00", align 1
@.str.13 = private unnamed_addr constant [2 x i8] c"*\00", align 1
@.str.14 = private unnamed_addr constant [8 x i8] c"(<...>)\00", align 1
@.str.15 = private unnamed_addr constant [4 x i8] c"[]*\00", align 1
@.str.16 = private unnamed_addr constant [3 x i8] c"**\00", align 1
@.str.17 = private unnamed_addr constant [4 x i8] c"*[]\00", align 1
@.str.18 = private unnamed_addr constant [5 x i8] c"[][]\00", align 1

; Function Attrs: nounwind uwtable
define dso_local void @print_type(ptr noundef %0, ptr noundef %1) #0 {
  %3 = alloca ptr, align 8
  %4 = alloca ptr, align 8
  store ptr %0, ptr %3, align 8
  store ptr %1, ptr %4, align 8
  %5 = load ptr, ptr %4, align 8
  %6 = load i16, ptr %5, align 8
  %7 = and i16 %6, 7
  %8 = zext i16 %7 to i32
  %9 = icmp eq i32 %8, 2
  br i1 %9, label %10, label %18

10:                                               ; preds = %2
  %11 = load ptr, ptr %4, align 8
  %12 = getelementptr inbounds %struct.TypeInfo_, ptr %11, i32 0, i32 1
  %13 = load ptr, ptr %12, align 8
  %14 = getelementptr inbounds %struct.Type_, ptr %13, i32 0, i32 2
  %15 = load ptr, ptr %14, align 8
  %16 = load ptr, ptr %3, align 8
  %17 = call i32 @fputs(ptr noundef %15, ptr noundef %16)
  br label %165

18:                                               ; preds = %2
  %19 = load ptr, ptr %4, align 8
  %20 = load i16, ptr %19, align 8
  %21 = lshr i16 %20, 3
  %22 = and i16 %21, 63
  %23 = zext i16 %22 to i32
  switch i32 %23, label %140 [
    i32 0, label %24
    i32 1, label %27
    i32 2, label %27
    i32 3, label %49
    i32 4, label %59
    i32 5, label %62
    i32 6, label %65
    i32 7, label %68
    i32 8, label %84
    i32 9, label %100
    i32 10, label %108
    i32 11, label %116
    i32 12, label %124
    i32 13, label %132
  ]

24:                                               ; preds = %18
  br label %25

25:                                               ; preds = %24
  call void (ptr, ...) @error_exit(ptr noundef @.str, ptr noundef @.str.1, ptr noundef @__func__.print_type, ptr noundef @.str.2, i32 noundef 95) #4
  unreachable

26:                                               ; No predecessors!
  br label %27

27:                                               ; preds = %26, %18, %18
  %28 = load ptr, ptr %4, align 8
  %29 = getelementptr inbounds %struct.TypeInfo_, ptr %28, i32 0, i32 3
  %30 = getelementptr inbounds %struct.anon.0, ptr %29, i32 0, i32 1
  %31 = load ptr, ptr %30, align 8
  %32 = icmp ne ptr %31, null
  br i1 %32, label %33, label %42

33:                                               ; preds = %27
  %34 = load ptr, ptr %3, align 8
  %35 = load ptr, ptr %4, align 8
  %36 = getelementptr inbounds %struct.TypeInfo_, ptr %35, i32 0, i32 3
  %37 = getelementptr inbounds %struct.anon.0, ptr %36, i32 0, i32 1
  %38 = load ptr, ptr %37, align 8
  %39 = getelementptr inbounds %struct.Path_, ptr %38, i32 0, i32 1
  %40 = load ptr, ptr %39, align 8
  %41 = call i32 (ptr, ptr, ...) @fprintf(ptr noundef %34, ptr noundef @.str.3, ptr noundef %40) #5
  br label %42

42:                                               ; preds = %33, %27
  %43 = load ptr, ptr %4, align 8
  %44 = getelementptr inbounds %struct.TypeInfo_, ptr %43, i32 0, i32 3
  %45 = getelementptr inbounds %struct.anon.0, ptr %44, i32 0, i32 0
  %46 = load ptr, ptr %45, align 8
  %47 = load ptr, ptr %3, align 8
  %48 = call i32 @fputs(ptr noundef %46, ptr noundef %47)
  br label %140

49:                                               ; preds = %18
  call void @scratch_buffer_clear()
  %50 = load ptr, ptr %4, align 8
  %51 = getelementptr inbounds %struct.TypeInfo_, ptr %50, i32 0, i32 3
  %52 = load ptr, ptr %51, align 8
  %53 = getelementptr inbounds %struct.Expr_, ptr %52, i32 0, i32 1
  %54 = getelementptr inbounds %union.SourceSpan, ptr %53, i32 0, i32 0
  %55 = load i64, ptr %54, align 8
  call void @span_to_scratch(i64 %55)
  %56 = load ptr, ptr %3, align 8
  %57 = call ptr @scratch_buffer_to_string()
  %58 = call i32 (ptr, ptr, ...) @fprintf(ptr noundef %56, ptr noundef @.str.4, ptr noundef %57) #5
  br label %140

59:                                               ; preds = %18
  %60 = load ptr, ptr %3, align 8
  %61 = call i32 (ptr, ptr, ...) @fprintf(ptr noundef %60, ptr noundef @.str.5) #5
  br label %140

62:                                               ; preds = %18
  %63 = load ptr, ptr %3, align 8
  %64 = call i32 (ptr, ptr, ...) @fprintf(ptr noundef %63, ptr noundef @.str.6) #5
  br label %140

65:                                               ; preds = %18
  %66 = load ptr, ptr %3, align 8
  %67 = call i32 (ptr, ptr, ...) @fprintf(ptr noundef %66, ptr noundef @.str.7) #5
  br label %140

68:                                               ; preds = %18
  %69 = load ptr, ptr %3, align 8
  %70 = load ptr, ptr %4, align 8
  %71 = getelementptr inbounds %struct.TypeInfo_, ptr %70, i32 0, i32 3
  %72 = getelementptr inbounds %struct.anon.1, ptr %71, i32 0, i32 0
  %73 = load ptr, ptr %72, align 8
  call void @print_type(ptr noundef %69, ptr noundef %73)
  call void @scratch_buffer_clear()
  %74 = load ptr, ptr %4, align 8
  %75 = getelementptr inbounds %struct.TypeInfo_, ptr %74, i32 0, i32 3
  %76 = getelementptr inbounds %struct.anon.1, ptr %75, i32 0, i32 1
  %77 = load ptr, ptr %76, align 8
  %78 = getelementptr inbounds %struct.Expr_, ptr %77, i32 0, i32 1
  %79 = getelementptr inbounds %union.SourceSpan, ptr %78, i32 0, i32 0
  %80 = load i64, ptr %79, align 8
  call void @span_to_scratch(i64 %80)
  %81 = load ptr, ptr %3, align 8
  %82 = call ptr @scratch_buffer_to_string()
  %83 = call i32 (ptr, ptr, ...) @fprintf(ptr noundef %81, ptr noundef @.str.8, ptr noundef %82) #5
  br label %140

84:                                               ; preds = %18
  %85 = load ptr, ptr %3, align 8
  %86 = load ptr, ptr %4, align 8
  %87 = getelementptr inbounds %struct.TypeInfo_, ptr %86, i32 0, i32 3
  %88 = getelementptr inbounds %struct.anon.1, ptr %87, i32 0, i32 0
  %89 = load ptr, ptr %88, align 8
  call void @print_type(ptr noundef %85, ptr noundef %89)
  call void @scratch_buffer_clear()
  %90 = load ptr, ptr %4, align 8
  %91 = getelementptr inbounds %struct.TypeInfo_, ptr %90, i32 0, i32 3
  %92 = getelementptr inbounds %struct.anon.1, ptr %91, i32 0, i32 1
  %93 = load ptr, ptr %92, align 8
  %94 = getelementptr inbounds %struct.Expr_, ptr %93, i32 0, i32 1
  %95 = getelementptr inbounds %union.SourceSpan, ptr %94, i32 0, i32 0
  %96 = load i64, ptr %95, align 8
  call void @span_to_scratch(i64 %96)
  %97 = load ptr, ptr %3, align 8
  %98 = call ptr @scratch_buffer_to_string()
  %99 = call i32 (ptr, ptr, ...) @fprintf(ptr noundef %97, ptr noundef @.str.9, ptr noundef %98) #5
  br label %140

100:                                              ; preds = %18
  %101 = load ptr, ptr %3, align 8
  %102 = load ptr, ptr %4, align 8
  %103 = getelementptr inbounds %struct.TypeInfo_, ptr %102, i32 0, i32 3
  %104 = getelementptr inbounds %struct.anon.1, ptr %103, i32 0, i32 0
  %105 = load ptr, ptr %104, align 8
  call void @print_type(ptr noundef %101, ptr noundef %105)
  %106 = load ptr, ptr %3, align 8
  %107 = call i32 @fputs(ptr noundef @.str.10, ptr noundef %106)
  br label %140

108:                                              ; preds = %18
  %109 = load ptr, ptr %3, align 8
  %110 = load ptr, ptr %4, align 8
  %111 = getelementptr inbounds %struct.TypeInfo_, ptr %110, i32 0, i32 3
  %112 = getelementptr inbounds %struct.anon.1, ptr %111, i32 0, i32 0
  %113 = load ptr, ptr %112, align 8
  call void @print_type(ptr noundef %109, ptr noundef %113)
  %114 = load ptr, ptr %3, align 8
  %115 = call i32 @fputs(ptr noundef @.str.11, ptr noundef %114)
  br label %140

116:                                              ; preds = %18
  %117 = load ptr, ptr %3, align 8
  %118 = load ptr, ptr %4, align 8
  %119 = getelementptr inbounds %struct.TypeInfo_, ptr %118, i32 0, i32 3
  %120 = getelementptr inbounds %struct.anon.1, ptr %119, i32 0, i32 0
  %121 = load ptr, ptr %120, align 8
  call void @print_type(ptr noundef %117, ptr noundef %121)
  %122 = load ptr, ptr %3, align 8
  %123 = call i32 @fputs(ptr noundef @.str.12, ptr noundef %122)
  br label %140

124:                                              ; preds = %18
  %125 = load ptr, ptr %3, align 8
  %126 = load ptr, ptr %4, align 8
  %127 = getelementptr inbounds %struct.TypeInfo_, ptr %126, i32 0, i32 3
  %128 = getelementptr inbounds %struct.anon.1, ptr %127, i32 0, i32 0
  %129 = load ptr, ptr %128, align 8
  call void @print_type(ptr noundef %125, ptr noundef %129)
  %130 = load ptr, ptr %3, align 8
  %131 = call i32 @fputs(ptr noundef @.str.13, ptr noundef %130)
  br label %140

132:                                              ; preds = %18
  %133 = load ptr, ptr %3, align 8
  %134 = load ptr, ptr %4, align 8
  %135 = getelementptr inbounds %struct.TypeInfo_, ptr %134, i32 0, i32 3
  %136 = getelementptr inbounds %struct.anon.1, ptr %135, i32 0, i32 0
  %137 = load ptr, ptr %136, align 8
  call void @print_type(ptr noundef %133, ptr noundef %137)
  %138 = load ptr, ptr %3, align 8
  %139 = call i32 @fputs(ptr noundef @.str.14, ptr noundef %138)
  br label %140

140:                                              ; preds = %132, %124, %116, %108, %100, %84, %68, %65, %62, %59, %49, %42, %18
  %141 = load ptr, ptr %4, align 8
  %142 = load i16, ptr %141, align 8
  %143 = lshr i16 %142, 10
  %144 = and i16 %143, 15
  %145 = zext i16 %144 to i32
  switch i32 %145, label %165 [
    i32 0, label %146
    i32 1, label %147
    i32 2, label %150
    i32 3, label %153
    i32 4, label %156
    i32 5, label %159
    i32 6, label %162
  ]

146:                                              ; preds = %140
  br label %165

147:                                              ; preds = %140
  %148 = load ptr, ptr %3, align 8
  %149 = call i32 @fputs(ptr noundef @.str.13, ptr noundef %148)
  br label %165

150:                                              ; preds = %140
  %151 = load ptr, ptr %3, align 8
  %152 = call i32 @fputs(ptr noundef @.str.12, ptr noundef %151)
  br label %165

153:                                              ; preds = %140
  %154 = load ptr, ptr %3, align 8
  %155 = call i32 @fputs(ptr noundef @.str.15, ptr noundef %154)
  br label %165

156:                                              ; preds = %140
  %157 = load ptr, ptr %3, align 8
  %158 = call i32 @fputs(ptr noundef @.str.16, ptr noundef %157)
  br label %165

159:                                              ; preds = %140
  %160 = load ptr, ptr %3, align 8
  %161 = call i32 @fputs(ptr noundef @.str.17, ptr noundef %160)
  br label %165

162:                                              ; preds = %140
  %163 = load ptr, ptr %3, align 8
  %164 = call i32 @fputs(ptr noundef @.str.18, ptr noundef %163)
  br label %165

165:                                              ; preds = %162, %159, %156, %153, %150, %147, %146, %140, %10
  ret void
}