; Function Attrs: nounwind uwtable
define dso_local void @print_type(ptr noundef %0, ptr nocapture noundef readonly %1) local_unnamed_addr #0 {
  %3 = load i16, ptr %1, align 8
  %4 = and i16 %3, 7
  %5 = icmp eq i16 %4, 2
  br i1 %5, label %6, label %12

6:                                                ; preds = %2
  %7 = getelementptr inbounds i8, ptr %1, i64 8
  %8 = load ptr, ptr %7, align 8
  %9 = getelementptr inbounds i8, ptr %8, i64 16
  %10 = load ptr, ptr %9, align 8
  %11 = tail call i32 @fputs(ptr noundef %10, ptr noundef %0)
  br label %92

12:                                               ; preds = %2
  %13 = lshr i16 %3, 3
  %14 = and i16 %13, 63
  switch i16 %14, label %77 [
    i16 0, label %15
    i16 1, label %16
    i16 2, label %16
    i16 3, label %27
    i16 4, label %34
    i16 5, label %36
    i16 6, label %38
    i16 7, label %40
    i16 8, label %49
    i16 9, label %58
    i16 10, label %62
    i16 11, label %66
    i16 12, label %70
    i16 13, label %73
  ]

15:                                               ; preds = %12
  tail call void (ptr, ...) @error_exit(ptr noundef nonnull @.str, ptr noundef nonnull @.str.1, ptr noundef nonnull @__func__.print_type, ptr noundef nonnull @.str.2, i32 noundef 95) #5
  unreachable

16:                                               ; preds = %12, %12
  %17 = getelementptr inbounds i8, ptr %1, i64 24
  %18 = getelementptr inbounds i8, ptr %1, i64 32
  %19 = load ptr, ptr %18, align 8
  %.not = icmp eq ptr %19, null
  br i1 %.not, label %24, label %20

20:                                               ; preds = %16
  %21 = getelementptr inbounds i8, ptr %19, i64 8
  %22 = load ptr, ptr %21, align 8
  %23 = tail call i32 (ptr, ptr, ...) @fprintf(ptr noundef %0, ptr noundef nonnull @.str.3, ptr noundef %22) #6
  br label %24

24:                                               ; preds = %20, %16
  %25 = load ptr, ptr %17, align 8
  %26 = tail call i32 @fputs(ptr noundef %25, ptr noundef %0)
  br label %77

27:                                               ; preds = %12
  tail call void @scratch_buffer_clear() #6
  %28 = getelementptr inbounds i8, ptr %1, i64 24
  %29 = load ptr, ptr %28, align 8
  %30 = getelementptr inbounds i8, ptr %29, i64 8
  %31 = load i64, ptr %30, align 8
  tail call void @span_to_scratch(i64 %31) #6
  %32 = tail call ptr @scratch_buffer_to_string() #6
  %33 = tail call i32 (ptr, ptr, ...) @fprintf(ptr noundef %0, ptr noundef nonnull @.str.4, ptr noundef %32) #6
  br label %77

34:                                               ; preds = %12
  %35 = tail call i64 @fwrite(ptr nonnull @.str.5, i64 12, i64 1, ptr %0)
  br label %77

36:                                               ; preds = %12
  %37 = tail call i64 @fwrite(ptr nonnull @.str.6, i64 14, i64 1, ptr %0)
  br label %77

38:                                               ; preds = %12
  %39 = tail call i64 @fwrite(ptr nonnull @.str.7, i64 14, i64 1, ptr %0)
  br label %77

40:                                               ; preds = %12
  %41 = getelementptr inbounds i8, ptr %1, i64 24
  %42 = load ptr, ptr %41, align 8
  tail call void @print_type(ptr noundef %0, ptr noundef %42)
  tail call void @scratch_buffer_clear() #6
  %43 = getelementptr inbounds i8, ptr %1, i64 32
  %44 = load ptr, ptr %43, align 8
  %45 = getelementptr inbounds i8, ptr %44, i64 8
  %46 = load i64, ptr %45, align 8
  tail call void @span_to_scratch(i64 %46) #6
  %47 = tail call ptr @scratch_buffer_to_string() #6
  %48 = tail call i32 (ptr, ptr, ...) @fprintf(ptr noundef %0, ptr noundef nonnull @.str.8, ptr noundef %47) #6
  br label %77

49:                                               ; preds = %12
  %50 = getelementptr inbounds i8, ptr %1, i64 24
  %51 = load ptr, ptr %50, align 8
  tail call void @print_type(ptr noundef %0, ptr noundef %51)
  tail call void @scratch_buffer_clear() #6
  %52 = getelementptr inbounds i8, ptr %1, i64 32
  %53 = load ptr, ptr %52, align 8
  %54 = getelementptr inbounds i8, ptr %53, i64 8
  %55 = load i64, ptr %54, align 8
  tail call void @span_to_scratch(i64 %55) #6
  %56 = tail call ptr @scratch_buffer_to_string() #6
  %57 = tail call i32 (ptr, ptr, ...) @fprintf(ptr noundef %0, ptr noundef nonnull @.str.9, ptr noundef %56) #6
  br label %77

58:                                               ; preds = %12
  %59 = getelementptr inbounds i8, ptr %1, i64 24
  %60 = load ptr, ptr %59, align 8
  tail call void @print_type(ptr noundef %0, ptr noundef %60)
  %61 = tail call i64 @fwrite(ptr nonnull @.str.10, i64 3, i64 1, ptr %0)
  br label %77

62:                                               ; preds = %12
  %63 = getelementptr inbounds i8, ptr %1, i64 24
  %64 = load ptr, ptr %63, align 8
  tail call void @print_type(ptr noundef %0, ptr noundef %64)
  %65 = tail call i64 @fwrite(ptr nonnull @.str.11, i64 4, i64 1, ptr %0)
  br label %77

66:                                               ; preds = %12
  %67 = getelementptr inbounds i8, ptr %1, i64 24
  %68 = load ptr, ptr %67, align 8
  tail call void @print_type(ptr noundef %0, ptr noundef %68)
  %69 = tail call i64 @fwrite(ptr nonnull @.str.12, i64 2, i64 1, ptr %0)
  br label %77

70:                                               ; preds = %12
  %71 = getelementptr inbounds i8, ptr %1, i64 24
  %72 = load ptr, ptr %71, align 8
  tail call void @print_type(ptr noundef %0, ptr noundef %72)
  %fputc = tail call i32 @fputc(i32 42, ptr %0)
  br label %77

73:                                               ; preds = %12
  %74 = getelementptr inbounds i8, ptr %1, i64 24
  %75 = load ptr, ptr %74, align 8
  tail call void @print_type(ptr noundef %0, ptr noundef %75)
  %76 = tail call i64 @fwrite(ptr nonnull @.str.14, i64 7, i64 1, ptr %0)
  br label %77

77:                                               ; preds = %73, %70, %66, %62, %58, %49, %40, %38, %36, %34, %27, %24, %12
  %78 = load i16, ptr %1, align 8
  %79 = lshr i16 %78, 10
  %80 = and i16 %79, 15
  switch i16 %80, label %92 [
    i16 6, label %90
    i16 1, label %81
    i16 2, label %82
    i16 3, label %84
    i16 4, label %86
    i16 5, label %88
  ]

81:                                               ; preds = %77
  %fputc44 = tail call i32 @fputc(i32 42, ptr %0)
  br label %92

82:                                               ; preds = %77
  %83 = tail call i64 @fwrite(ptr nonnull @.str.12, i64 2, i64 1, ptr %0)
  br label %92

84:                                               ; preds = %77
  %85 = tail call i64 @fwrite(ptr nonnull @.str.15, i64 3, i64 1, ptr %0)
  br label %92

86:                                               ; preds = %77
  %87 = tail call i64 @fwrite(ptr nonnull @.str.16, i64 2, i64 1, ptr %0)
  br label %92

88:                                               ; preds = %77
  %89 = tail call i64 @fwrite(ptr nonnull @.str.17, i64 3, i64 1, ptr %0)
  br label %92

90:                                               ; preds = %77
  %91 = tail call i64 @fwrite(ptr nonnull @.str.18, i64 4, i64 1, ptr %0)
  br label %92

92:                                               ; preds = %90, %88, %86, %84, %82, %81, %77, %6
  ret void
}